; Function Attrs: mustprogress uwtable
define dso_local void @_ZN14UnrollStatefulC2Ev(ptr nocapture noundef nonnull writeonly align 8 dereferenceable(8) %0) unnamed_addr #3 align 2 personality ptr @__gxx_personality_v0 {
  %2 = tail call noalias noundef nonnull dereferenceable(120) ptr @_Znwm(i64 noundef 120) #18
  invoke void @_ZN13UnrollVisitorC2Ev(ptr noundef nonnull align 8 dereferenceable(120) %2)
          to label %3 unwind label %4

3:                                                ; preds = %1
  store ptr %2, ptr %0, align 8
  ret void

4:                                                ; preds = %1
  %5 = landingpad { ptr, i32 }
          cleanup
  tail call void @_ZdlPv(ptr noundef nonnull %2) #19
  resume { ptr, i32 } %5
}